; Function Attrs: nounwind uwtable
define dso_local i32 @_PyErr_ExceptionMatches(ptr noundef readonly captures(none) %0, ptr noundef %1) local_unnamed_addr #0 {
  %3 = getelementptr i8, ptr %0, i64 112
  %.val = load ptr, ptr %3, align 8, !tbaa !4
  %4 = icmp eq ptr %.val, null
  br i1 %4, label %_PyErr_Occurred.exit, label %5

5:                                                ; preds = %2
  %6 = getelementptr i8, ptr %.val, i64 8
  %.val.i = load ptr, ptr %6, align 8, !tbaa !21
  br label %_PyErr_Occurred.exit

_PyErr_Occurred.exit:                             ; preds = %2, %5
  %.0.i = phi ptr [ %.val.i, %5 ], [ null, %2 ]
  %7 = tail call i32 @PyErr_GivenExceptionMatches(ptr noundef %.0.i, ptr noundef %1)
  ret i32 %7
}